; Function Attrs: mustprogress nofree norecurse nosync nounwind willreturn memory(read, inaccessiblemem: none) uwtable
define noundef i64 @_ZNK4YAML12EmitterState10LastIndentEv(ptr noundef nonnull readonly align 8 captures(none) dereferenceable(224) %0) local_unnamed_addr #6 align 2 {
  %2 = getelementptr inbounds nuw i8, ptr %0, i64 176
  %3 = getelementptr inbounds nuw i8, ptr %0, i64 184
  %4 = load ptr, ptr %3, align 8, !tbaa !88
  %5 = load ptr, ptr %2, align 8, !tbaa !87
  %6 = ptrtoint ptr %4 to i64
  %7 = ptrtoint ptr %5 to i64
  %8 = sub i64 %6, %7
  %9 = icmp ult i64 %8, 9
  br i1 %9, label %19, label %10

10:                                               ; preds = %1
  %11 = getelementptr inbounds nuw i8, ptr %0, i64 200
  %12 = load i64, ptr %11, align 8, !tbaa !105
  %13 = getelementptr i8, ptr %5, i64 %8
  %14 = getelementptr i8, ptr %13, i64 -16
  %15 = load ptr, ptr %14, align 8, !tbaa !89
  %16 = getelementptr inbounds nuw i8, ptr %15, i64 8
  %17 = load i64, ptr %16, align 8, !tbaa !104
  %18 = sub i64 %12, %17
  br label %19

19:                                               ; preds = %1, %10
  %.0 = phi i64 [ %18, %10 ], [ 0, %1 ]
  ret i64 %.0
}